#include <math.h>
#include <stdio.h>
#include <stdlib.h>
#include <string.h>

main()
{ int n,k=0,i,j,r,c,t,*a,p;
  scanf("%d%d",&r,&c);
  a=(int*)calloc(r*c,sizeof(int));
  for(i=0;i<r*c;i++)
  scanf("%d",a+i);
  for(i=0;i<c;i++)
  { j=0;t=i;
    while(t>=0&&j<r)
    { printf("%d",*(a+j*c+t));
      printf("\n");
      t--;j++;
    }
  }

  for(i=1;i<r;i++)
  { j=c-1;t=i;
    while(t<r&&j>=0)
    {   printf("%d",*(a+t*c+j));
	if(!(j==c-1&&t==r-1))printf("\n");
	j--;t++;
    }
  }
}